target datalayout = "e-m:e-p270:32:32-p271:32:32-p272:64:64-i64:64-i128:128-f80:128-n8:16:32:64-S128"
target triple = "x86_64-pc-linux-gnu"

%struct.H5F_t = type { ptr, ptr, ptr, ptr, i32, ptr, i8, i8, ptr, i32 }
%struct.H5F_shared_t = type { ptr, ptr, ptr, i8, i32, i32, %struct.H5F_mtab_t, ptr, i8, i8, i64, i32, i32, i64, i64, ptr, ptr, %struct.H5AC_cache_config_t, %struct.H5AC_cache_image_config_t, i8, i8, ptr, i64, i32, i8, i64, i64, double, i64, i64, i64, i32, i32, i32, i8, i32, ptr, ptr, ptr, ptr, i8, i8, i8, i64, ptr, ptr, i32, i64, i8, i32, i8, i64, i8, [13 x i32], [13 x i64], [13 x ptr], i8, i64, i64, [7 x i32], [7 x i32], %struct.H5F_blk_aggr_t, %struct.H5F_blk_aggr_t, i64, i64, %struct.H5F_meta_accum_t, i32, i32, [30 x ptr], %struct.H5F_object_flush_t, i8, ptr }
%struct.H5F_mtab_t = type { i32, i32, ptr }
%struct.H5AC_cache_config_t = type { i32, i8, i8, i8, [1025 x i8], i8, i8, i64, double, i64, i64, i64, i32, double, double, i8, i64, i32, double, double, i32, double, double, i8, i64, i32, i8, double, i64, i32 }
%struct.H5AC_cache_image_config_t = type { i32, i8, i8, i32 }
%struct.H5F_blk_aggr_t = type { i64, i64, i64, i64, i64 }
%struct.H5F_meta_accum_t = type { ptr, i64, i64, i64, i64, i64, i8 }
%struct.H5F_object_flush_t = type { ptr, ptr }
%struct.H5FO_open_obj_t = type { i64, ptr, i8 }

@.str = private unnamed_addr constant [98 x i8] c"generated/home/dtcxzyw/WorkSpace/Projects/compilers/llvm-opt-benchmark/bench/hdf5/hdf5/src/H5FO.c\00", align 1
@H5E_CACHE_g = external global i64, align 8
@__func__.H5FO_delete = private unnamed_addr constant [12 x i8] c"H5FO_delete\00", align 1
@H5E_CANTRELEASE_g = external global i64, align 8
@.str.4 = private unnamed_addr constant [35 x i8] c"can't remove object from container\00", align 1
@H5E_OHDR_g = external global i64, align 8
@H5E_CANTDELETE_g = external global i64, align 8
@.str.5 = private unnamed_addr constant [30 x i8] c"can't delete object from file\00", align 1
@H5_H5FO_open_obj_t_reg_free_list = internal global { i8, [3 x i8], i32, i32, [4 x i8], ptr, i64, ptr } { i8 0, [3 x i8] zeroinitializer, i32 0, i32 0, [4 x i8] zeroinitializer, ptr @.str.9, i64 24, ptr null }, align 8

; Function Attrs: nounwind uwtable
define i32 @H5FO_delete(ptr noundef %0, i64 noundef %1) #0 {
  %3 = alloca ptr, align 8
  %4 = alloca i64, align 8
  %5 = alloca ptr, align 8
  %6 = alloca i32, align 4
  %7 = alloca i8, align 1
  store ptr %0, ptr %3, align 8, !tbaa !3
  store i64 %1, ptr %4, align 8, !tbaa !39
  call void @llvm.lifetime.start.p0(i64 8, ptr %5) #3
  call void @llvm.lifetime.start.p0(i64 4, ptr %6) #3
  store i32 0, ptr %6, align 4, !tbaa !8
  call void @llvm.lifetime.start.p0(i64 1, ptr %7) #3
  store i8 0, ptr %7, align 1, !tbaa !10
  %8 = load ptr, ptr %3, align 8, !tbaa !3
  %9 = getelementptr inbounds nuw %struct.H5F_t, ptr %8, i32 0, i32 2
  %10 = load ptr, ptr %9, align 8, !tbaa !12
  %11 = getelementptr inbounds nuw %struct.H5F_shared_t, ptr %10, i32 0, i32 38
  %12 = load ptr, ptr %11, align 8, !tbaa !18
  %13 = call ptr @H5SL_remove(ptr noundef %12, ptr noundef %4)
  store ptr %13, ptr %5, align 8, !tbaa !42
  %14 = icmp eq ptr null, %13
  br i1 %14, label %15, label %34

15:                                               ; preds = %2
  br label %16

16:                                               ; preds = %15
  br label %17

17:                                               ; preds = %16
  br label %18

18:                                               ; preds = %17
  %19 = load i64, ptr @H5E_CACHE_g, align 8, !tbaa !39
  %20 = load i64, ptr @H5E_CANTRELEASE_g, align 8, !tbaa !39
  %21 = call i32 (ptr, ptr, i32, i64, i64, ptr, ...) @H5E_printf_stack(ptr noundef @.str, ptr noundef @__func__.H5FO_delete, i32 noundef 222, i64 noundef %19, i64 noundef %20, ptr noundef @.str.4)
  br label %22

22:                                               ; preds = %18
  br label %23

23:                                               ; preds = %22
  store i8 1, ptr %7, align 1, !tbaa !10
  %24 = load i8, ptr %7, align 1, !tbaa !10, !range !40, !noundef !41
  %25 = trunc i8 %24 to i1
  %26 = zext i1 %25 to i8
  store i8 %26, ptr %7, align 1, !tbaa !10
  br label %27

27:                                               ; preds = %23
  br label %28

28:                                               ; preds = %27
  br label %29

29:                                               ; preds = %28
  store i32 -1, ptr %6, align 4, !tbaa !8
  br label %67

30:                                               ; No predecessors!
  br label %31

31:                                               ; preds = %30
  br label %32

32:                                               ; preds = %31
  br label %33

33:                                               ; preds = %32
  br label %34

34:                                               ; preds = %33, %2
  %35 = load ptr, ptr %5, align 8, !tbaa !42
  %36 = getelementptr inbounds nuw %struct.H5FO_open_obj_t, ptr %35, i32 0, i32 2
  %37 = load i8, ptr %36, align 8, !tbaa !48, !range !40, !noundef !41
  %38 = trunc i8 %37 to i1
  br i1 %38, label %39, label %64

39:                                               ; preds = %34
  %40 = load ptr, ptr %3, align 8, !tbaa !3
  %41 = load i64, ptr %4, align 8, !tbaa !39
  %42 = call i32 @H5O_delete(ptr noundef %40, i64 noundef %41)
  %43 = icmp slt i32 %42, 0
  br i1 %43, label %44, label %63

44:                                               ; preds = %39
  br label %45

45:                                               ; preds = %44
  br label %46

46:                                               ; preds = %45
  br label %47

47:                                               ; preds = %46
  %48 = load i64, ptr @H5E_OHDR_g, align 8, !tbaa !39
  %49 = load i64, ptr @H5E_CANTDELETE_g, align 8, !tbaa !39
  %50 = call i32 (ptr, ptr, i32, i64, i64, ptr, ...) @H5E_printf_stack(ptr noundef @.str, ptr noundef @__func__.H5FO_delete, i32 noundef 227, i64 noundef %48, i64 noundef %49, ptr noundef @.str.5)
  br label %51

51:                                               ; preds = %47
  br label %52

52:                                               ; preds = %51
  store i8 1, ptr %7, align 1, !tbaa !10
  %53 = load i8, ptr %7, align 1, !tbaa !10, !range !40, !noundef !41
  %54 = trunc i8 %53 to i1
  %55 = zext i1 %54 to i8
  store i8 %55, ptr %7, align 1, !tbaa !10
  br label %56

56:                                               ; preds = %52
  br label %57

57:                                               ; preds = %56
  br label %58

58:                                               ; preds = %57
  store i32 -1, ptr %6, align 4, !tbaa !8
  br label %67

59:                                               ; No predecessors!
  br label %60

60:                                               ; preds = %59
  br label %61

61:                                               ; preds = %60
  br label %62

62:                                               ; preds = %61
  br label %63

63:                                               ; preds = %62, %39
  br label %64

64:                                               ; preds = %63, %34
  %65 = load ptr, ptr %5, align 8, !tbaa !42
  %66 = call ptr @H5FL_reg_free(ptr noundef @H5_H5FO_open_obj_t_reg_free_list, ptr noundef %65)
  store ptr %66, ptr %5, align 8, !tbaa !42
  br label %67

67:                                               ; preds = %64, %58, %29
  %68 = load i32, ptr %6, align 4, !tbaa !8
  call void @llvm.lifetime.end.p0(i64 1, ptr %7) #3
  call void @llvm.lifetime.end.p0(i64 4, ptr %6) #3
  call void @llvm.lifetime.end.p0(i64 8, ptr %5) #3
  ret i32 %68
}