; Function Attrs: nounwind uwtable
define range(i32 -1, 1) i32 @H5FO_delete(ptr noundef %0, i64 noundef %1) local_unnamed_addr #0 {
  %3 = alloca i64, align 8
  store i64 %1, ptr %3, align 8, !tbaa !36
  %4 = getelementptr inbounds nuw i8, ptr %0, i64 16
  %5 = load ptr, ptr %4, align 8, !tbaa !3
  %6 = getelementptr inbounds nuw i8, ptr %5, i64 1464
  %7 = load ptr, ptr %6, align 8, !tbaa !15
  %8 = call ptr @H5SL_remove(ptr noundef %7, ptr noundef nonnull %3) #2
  %9 = icmp eq ptr %8, null
  br i1 %9, label %10, label %14

10:                                               ; preds = %2
  %11 = load i64, ptr @H5E_CACHE_g, align 8, !tbaa !36
  %12 = load i64, ptr @H5E_CANTRELEASE_g, align 8, !tbaa !36
  %13 = call i32 (ptr, ptr, i32, i64, i64, ptr, ...) @H5E_printf_stack(ptr noundef nonnull @.str, ptr noundef nonnull @__func__.H5FO_delete, i32 noundef 222, i64 noundef %11, i64 noundef %12, ptr noundef nonnull @.str.4) #2
  br label %28

14:                                               ; preds = %2
  %15 = getelementptr inbounds nuw i8, ptr %8, i64 16
  %16 = load i8, ptr %15, align 8, !tbaa !40, !range !41, !noundef !42
  %17 = trunc nuw i8 %16 to i1
  br i1 %17, label %18, label %26

18:                                               ; preds = %14
  %19 = load i64, ptr %3, align 8, !tbaa !36
  %20 = call i32 @H5O_delete(ptr noundef nonnull %0, i64 noundef %19) #2
  %21 = icmp slt i32 %20, 0
  br i1 %21, label %22, label %26

22:                                               ; preds = %18
  %23 = load i64, ptr @H5E_OHDR_g, align 8, !tbaa !36
  %24 = load i64, ptr @H5E_CANTDELETE_g, align 8, !tbaa !36
  %25 = call i32 (ptr, ptr, i32, i64, i64, ptr, ...) @H5E_printf_stack(ptr noundef nonnull @.str, ptr noundef nonnull @__func__.H5FO_delete, i32 noundef 227, i64 noundef %23, i64 noundef %24, ptr noundef nonnull @.str.5) #2
  br label %28

26:                                               ; preds = %18, %14
  %27 = call ptr @H5FL_reg_free(ptr noundef nonnull @H5_H5FO_open_obj_t_reg_free_list, ptr noundef nonnull %8) #2
  br label %28

28:                                               ; preds = %26, %22, %10
  %.0 = phi i32 [ -1, %10 ], [ -1, %22 ], [ 0, %26 ]
  ret i32 %.0
}